target datalayout = "e-m:e-p270:32:32-p271:32:32-p272:64:64-i64:64-i128:128-f80:128-n8:16:32:64-S128"
target triple = "x86_64-pc-linux-gnu"

%struct.LexState = type { ptr, ptr, %union.TValue, %union.TValue, ptr, ptr, i32, i32, i32, %struct.SBuf, ptr, ptr, i32, i32, ptr, ptr, ptr, ptr, i32, i32, ptr, i32, i32, i32, i32 }
%union.TValue = type { i64 }
%struct.SBuf = type { ptr, ptr, ptr, %struct.MRef }
%struct.MRef = type { i64 }

; Function Attrs: noinline nounwind uwtable
define internal i32 @lex_more(ptr noundef %0) #10 {
  %2 = alloca i32, align 4
  %3 = alloca ptr, align 8
  %4 = alloca i64, align 8
  %5 = alloca ptr, align 8
  %6 = alloca i32, align 4
  store ptr %0, ptr %3, align 8, !tbaa !9
  call void @llvm.lifetime.start.p0(i64 8, ptr %4) #11
  call void @llvm.lifetime.start.p0(i64 8, ptr %5) #11
  %7 = load ptr, ptr %3, align 8, !tbaa !9
  %8 = getelementptr inbounds nuw %struct.LexState, ptr %7, i32 0, i32 10
  %9 = load ptr, ptr %8, align 8, !tbaa !77
  %10 = load ptr, ptr %3, align 8, !tbaa !9
  %11 = getelementptr inbounds nuw %struct.LexState, ptr %10, i32 0, i32 1
  %12 = load ptr, ptr %11, align 8, !tbaa !13
  %13 = load ptr, ptr %3, align 8, !tbaa !9
  %14 = getelementptr inbounds nuw %struct.LexState, ptr %13, i32 0, i32 11
  %15 = load ptr, ptr %14, align 8, !tbaa !78
  %16 = call ptr %9(ptr noundef %12, ptr noundef %15, ptr noundef %4)
  store ptr %16, ptr %5, align 8, !tbaa !73
  %17 = load ptr, ptr %5, align 8, !tbaa !73
  %18 = icmp eq ptr %17, null
  br i1 %18, label %22, label %19

19:                                               ; preds = %1
  %20 = load i64, ptr %4, align 8, !tbaa !51
  %21 = icmp eq i64 %20, 0
  br i1 %21, label %22, label %23

22:                                               ; preds = %19, %1
  store i32 -1, ptr %2, align 4
  store i32 1, ptr %6, align 4
  br label %57

23:                                               ; preds = %19
  %24 = load i64, ptr %4, align 8, !tbaa !51
  %25 = icmp uge i64 %24, 2147483392
  br i1 %25, label %26, label %43

26:                                               ; preds = %23
  %27 = load i64, ptr %4, align 8, !tbaa !51
  %28 = icmp ne i64 %27, -1
  br i1 %28, label %29, label %33

29:                                               ; preds = %26
  %30 = load ptr, ptr %3, align 8, !tbaa !9
  %31 = getelementptr inbounds nuw %struct.LexState, ptr %30, i32 0, i32 1
  %32 = load ptr, ptr %31, align 8, !tbaa !13
  call void @lj_err_mem(ptr noundef %32) #12
  unreachable

33:                                               ; preds = %26
  %34 = load ptr, ptr %5, align 8, !tbaa !73
  %35 = ptrtoint ptr %34 to i64
  %36 = sub i64 -1, %35
  store i64 %36, ptr %4, align 8, !tbaa !51
  %37 = load i64, ptr %4, align 8, !tbaa !51
  %38 = icmp uge i64 %37, 2147483392
  br i1 %38, label %39, label %40

39:                                               ; preds = %33
  store i64 2147483391, ptr %4, align 8, !tbaa !51
  br label %40

40:                                               ; preds = %39, %33
  %41 = load ptr, ptr %3, align 8, !tbaa !9
  %42 = getelementptr inbounds nuw %struct.LexState, ptr %41, i32 0, i32 23
  store i32 1, ptr %42, align 8, !tbaa !35
  br label %43

43:                                               ; preds = %40, %23
  %44 = load ptr, ptr %5, align 8, !tbaa !73
  %45 = load i64, ptr %4, align 8, !tbaa !51
  %46 = getelementptr inbounds nuw i8, ptr %44, i64 %45
  %47 = load ptr, ptr %3, align 8, !tbaa !9
  %48 = getelementptr inbounds nuw %struct.LexState, ptr %47, i32 0, i32 5
  store ptr %46, ptr %48, align 8, !tbaa !25
  %49 = load ptr, ptr %5, align 8, !tbaa !73
  %50 = getelementptr inbounds i8, ptr %49, i64 1
  %51 = load ptr, ptr %3, align 8, !tbaa !9
  %52 = getelementptr inbounds nuw %struct.LexState, ptr %51, i32 0, i32 4
  store ptr %50, ptr %52, align 8, !tbaa !24
  %53 = load ptr, ptr %5, align 8, !tbaa !73
  %54 = getelementptr inbounds i8, ptr %53, i64 0
  %55 = load i8, ptr %54, align 1, !tbaa !38
  %56 = zext i8 %55 to i32
  store i32 %56, ptr %2, align 4
  store i32 1, ptr %6, align 4
  br label %57

57:                                               ; preds = %43, %22
  call void @llvm.lifetime.end.p0(i64 8, ptr %5) #11
  call void @llvm.lifetime.end.p0(i64 8, ptr %4) #11
  %58 = load i32, ptr %2, align 4
  ret i32 %58
}