; Function Attrs: noinline nounwind uwtable
define internal fastcc range(i32 -1, 256) i32 @lex_more(ptr noundef captures(none) %0) unnamed_addr #7 {
  %2 = alloca i64, align 8
  call void @llvm.lifetime.start.p0(i64 8, ptr nonnull %2) #11
  %3 = getelementptr inbounds nuw i8, ptr %0, i64 96
  %4 = load ptr, ptr %3, align 8, !tbaa !69
  %5 = getelementptr inbounds nuw i8, ptr %0, i64 8
  %6 = load ptr, ptr %5, align 8, !tbaa !4
  %7 = getelementptr inbounds nuw i8, ptr %0, i64 104
  %8 = load ptr, ptr %7, align 8, !tbaa !70
  %9 = call ptr %4(ptr noundef %6, ptr noundef %8, ptr noundef nonnull %2) #11
  %10 = icmp eq ptr %9, null
  %11 = load i64, ptr %2, align 8
  %12 = icmp eq i64 %11, 0
  %or.cond = select i1 %10, i1 true, i1 %12
  br i1 %or.cond, label %30, label %13

13:                                               ; preds = %1
  %14 = icmp ugt i64 %11, 2147483391
  br i1 %14, label %15, label %22

15:                                               ; preds = %13
  %.not = icmp eq i64 %11, -1
  br i1 %.not, label %18, label %16

16:                                               ; preds = %15
  %17 = load ptr, ptr %5, align 8, !tbaa !4
  call void @lj_err_mem(ptr noundef %17) #12
  unreachable

18:                                               ; preds = %15
  %19 = ptrtoint ptr %9 to i64
  %20 = call i64 @llvm.umax.i64(i64 %19, i64 -2147483392)
  %spec.store.select = xor i64 %20, -1
  store i64 %spec.store.select, ptr %2, align 8
  %21 = getelementptr inbounds nuw i8, ptr %0, i64 176
  store i32 1, ptr %21, align 8, !tbaa !24
  br label %22

22:                                               ; preds = %18, %13
  %23 = phi i64 [ %spec.store.select, %18 ], [ %11, %13 ]
  %24 = getelementptr inbounds nuw i8, ptr %9, i64 %23
  %25 = getelementptr inbounds nuw i8, ptr %0, i64 40
  store ptr %24, ptr %25, align 8, !tbaa !28
  %26 = getelementptr inbounds nuw i8, ptr %9, i64 1
  %27 = getelementptr inbounds nuw i8, ptr %0, i64 32
  store ptr %26, ptr %27, align 8, !tbaa !27
  %28 = load i8, ptr %9, align 1, !tbaa !29
  %29 = zext i8 %28 to i32
  br label %30

30:                                               ; preds = %1, %22
  %.0 = phi i32 [ %29, %22 ], [ -1, %1 ]
  call void @llvm.lifetime.end.p0(i64 8, ptr nonnull %2) #11
  ret i32 %.0
}